; Function Attrs: nofree norecurse nosync nounwind null_pointer_is_valid sspstrong memory(none) uwtable
define ptr @ws_iana_ipv4_special_block_lookup(i32 noundef %0) local_unnamed_addr #0 {
  br label %.lr.ph.i

.lr.ph.i:                                         ; preds = %15, %1
  %.01621.i = phi i64 [ %.1.i, %15 ], [ 0, %1 ]
  %.01720.i = phi i64 [ %.118.i, %15 ], [ 24, %1 ]
  %2 = add i64 %.01720.i, %.01621.i
  %3 = lshr i64 %2, 1
  %4 = mul i64 %3, 56
  %5 = getelementptr i8, ptr @__ipv4_special_block, i64 %4
  %6 = getelementptr inbounds nuw i8, ptr %5, i64 4
  %7 = getelementptr inbounds nuw i8, ptr %5, i64 8
  %8 = load i32, ptr %7, align 8
  %9 = and i32 %8, %0
  %10 = load i32, ptr %6, align 4
  %11 = icmp ult i32 %9, %10
  br i1 %11, label %15, label %12

12:                                               ; preds = %.lr.ph.i
  %.not.i = icmp eq i32 %9, %10
  br i1 %.not.i, label %bsearch.exit, label %13

13:                                               ; preds = %12
  %14 = add nuw i64 %3, 1
  br label %15

15:                                               ; preds = %13, %.lr.ph.i
  %.118.i = phi i64 [ %.01720.i, %13 ], [ %3, %.lr.ph.i ]
  %.1.i = phi i64 [ %14, %13 ], [ %.01621.i, %.lr.ph.i ]
  %16 = icmp ult i64 %.1.i, %.118.i
  br i1 %16, label %.lr.ph.i, label %bsearch.exit, !llvm.loop !6

bsearch.exit:                                     ; preds = %12, %15
  %.0.i = phi ptr [ null, %15 ], [ %5, %12 ]
  ret ptr %.0.i
}